; Function Attrs: mustprogress uwtable
define noundef zeroext i1 @_ZN4base12ReplaceCharsERKNSt7__cxx1112basic_stringItNS_20string16_char_traitsESaItEEERKNS_16BasicStringPieceIS4_EES6_PS4_(ptr noundef nonnull align 8 dereferenceable(32) %0, ptr noundef nonnull align 8 dereferenceable(16) %1, ptr noundef nonnull align 8 dereferenceable(32) %2, ptr noundef %3) local_unnamed_addr #3 personality ptr @__gxx_personality_v0 {
  %5 = alloca %"class.std::__cxx11::basic_string.1", align 8
  call void @llvm.lifetime.start.p0(i64 32, ptr nonnull %5) #28
  call void @_ZNK4base16BasicStringPieceINSt7__cxx1112basic_stringItNS_20string16_char_traitsESaItEEEE9as_stringEv(ptr dead_on_unwind nonnull writable sret(%"class.std::__cxx11::basic_string.1") align 8 %5, ptr noundef nonnull align 8 dereferenceable(16) %1)
  %6 = invoke noundef zeroext i1 @_ZN4base13ReplaceCharsTINSt7__cxx1112basic_stringItNS_20string16_char_traitsESaItEEEEEbRKT_S8_S8_PS6_(ptr noundef nonnull align 8 dereferenceable(32) %0, ptr noundef nonnull align 8 dereferenceable(32) %5, ptr noundef nonnull align 8 dereferenceable(32) %2, ptr noundef %3)
          to label %7 unwind label %14

7:                                                ; preds = %4
  %8 = load ptr, ptr %5, align 8, !tbaa !33
  %9 = getelementptr inbounds nuw i8, ptr %5, i64 16
  %10 = icmp eq ptr %8, %9
  br i1 %10, label %_ZNKSt7__cxx1112basic_stringItN4base20string16_char_traitsESaItEE11_M_is_localEv.exit.thread.i.i, label %_ZNKSt7__cxx1112basic_stringItN4base20string16_char_traitsESaItEE11_M_is_localEv.exit.i.i

_ZNKSt7__cxx1112basic_stringItN4base20string16_char_traitsESaItEE11_M_is_localEv.exit.thread.i.i: ; preds = %7
  %11 = getelementptr inbounds nuw i8, ptr %5, i64 8
  %12 = load i64, ptr %11, align 8, !tbaa !29
  %13 = icmp ult i64 %12, 8
  call void @llvm.assume(i1 %13)
  br label %_ZNSt7__cxx1112basic_stringItN4base20string16_char_traitsESaItEED2Ev.exit

_ZNKSt7__cxx1112basic_stringItN4base20string16_char_traitsESaItEE11_M_is_localEv.exit.i.i: ; preds = %7
  call void @_ZdlPv(ptr noundef %8) #26
  br label %_ZNSt7__cxx1112basic_stringItN4base20string16_char_traitsESaItEED2Ev.exit

_ZNSt7__cxx1112basic_stringItN4base20string16_char_traitsESaItEED2Ev.exit: ; preds = %_ZNKSt7__cxx1112basic_stringItN4base20string16_char_traitsESaItEE11_M_is_localEv.exit.thread.i.i, %_ZNKSt7__cxx1112basic_stringItN4base20string16_char_traitsESaItEE11_M_is_localEv.exit.i.i
  call void @llvm.lifetime.end.p0(i64 32, ptr nonnull %5) #28
  ret i1 %6

14:                                               ; preds = %4
  %15 = landingpad { ptr, i32 }
          cleanup
  %16 = load ptr, ptr %5, align 8, !tbaa !33
  %17 = getelementptr inbounds nuw i8, ptr %5, i64 16
  %18 = icmp eq ptr %16, %17
  br i1 %18, label %_ZNKSt7__cxx1112basic_stringItN4base20string16_char_traitsESaItEE11_M_is_localEv.exit.thread.i.i6, label %_ZNKSt7__cxx1112basic_stringItN4base20string16_char_traitsESaItEE11_M_is_localEv.exit.i.i5

_ZNKSt7__cxx1112basic_stringItN4base20string16_char_traitsESaItEE11_M_is_localEv.exit.thread.i.i6: ; preds = %14
  %19 = getelementptr inbounds nuw i8, ptr %5, i64 8
  %20 = load i64, ptr %19, align 8, !tbaa !29
  %21 = icmp ult i64 %20, 8
  call void @llvm.assume(i1 %21)
  br label %_ZNSt7__cxx1112basic_stringItN4base20string16_char_traitsESaItEED2Ev.exit7

_ZNKSt7__cxx1112basic_stringItN4base20string16_char_traitsESaItEE11_M_is_localEv.exit.i.i5: ; preds = %14
  call void @_ZdlPv(ptr noundef %16) #26
  br label %_ZNSt7__cxx1112basic_stringItN4base20string16_char_traitsESaItEED2Ev.exit7

_ZNSt7__cxx1112basic_stringItN4base20string16_char_traitsESaItEED2Ev.exit7: ; preds = %_ZNKSt7__cxx1112basic_stringItN4base20string16_char_traitsESaItEE11_M_is_localEv.exit.thread.i.i6, %_ZNKSt7__cxx1112basic_stringItN4base20string16_char_traitsESaItEE11_M_is_localEv.exit.i.i5
  call void @llvm.lifetime.end.p0(i64 32, ptr nonnull %5) #28
  resume { ptr, i32 } %15
}